; Function Attrs: nounwind uwtable
define internal noundef i32 @OnUpdateMaxAllowedStackSize(ptr nocapture noundef readonly %0, ptr noundef %1, ptr nocapture readnone %2, ptr nocapture readnone %3, ptr nocapture readnone %4, i32 %5) #0 {
  %7 = load ptr, ptr %0, align 8
  %8 = tail call i64 @zend_ini_parse_quantity_warn(ptr noundef %1, ptr noundef %7) #30
  %9 = icmp slt i64 %8, -1
  br i1 %9, label %10, label %13

10:                                               ; preds = %6
  %11 = load ptr, ptr %0, align 8
  %12 = getelementptr inbounds i8, ptr %11, i64 24
  tail call void (i32, ptr, ...) @zend_error(i32 noundef 2, ptr noundef nonnull @.str.50, ptr noundef nonnull %12, i32 noundef -1, i64 noundef %8)
  br label %14

13:                                               ; preds = %6
  store i64 %8, ptr getelementptr inbounds (%struct._zend_executor_globals, ptr @executor_globals, i64 0, i32 78), align 8
  br label %14

14:                                               ; preds = %13, %10
  %.0 = phi i32 [ -1, %10 ], [ 0, %13 ]
  ret i32 %.0
}